target datalayout = "e-m:e-p270:32:32-p271:32:32-p272:64:64-i64:64-i128:128-f80:128-n8:16:32:64-S128"
target triple = "x86_64-pc-linux-gnu"

%struct._zval_struct = type { %union._zend_value, %union.anon, %union.anon.2 }
%union._zend_value = type { i64 }
%union.anon = type { i32 }
%union.anon.2 = type { i32 }
%struct._zend_array = type { %struct._zend_refcounted_h, %union.anon.4, i32, %union.anon.6, i32, i32, i32, i32, i64, ptr }
%struct._zend_refcounted_h = type { i32, %union.anon.3 }
%union.anon.3 = type { i32 }
%union.anon.4 = type { i32 }
%union.anon.6 = type { ptr }
%struct._zend_resource = type { %struct._zend_refcounted_h, i64, i32, ptr }
%struct._zend_rsrc_list_dtors_entry = type { ptr, ptr, ptr, i32, i32 }

@list_destructors = internal global %struct._zend_array zeroinitializer, align 8

; Function Attrs: nounwind uwtable
define internal void @zend_resource_dtor(ptr noundef %0) #0 {
  %2 = alloca ptr, align 8
  %3 = alloca ptr, align 8
  %4 = alloca i64, align 8
  %5 = alloca ptr, align 8
  %6 = alloca ptr, align 8
  %7 = alloca ptr, align 8
  %8 = alloca %struct._zend_resource, align 8
  store ptr %0, ptr %6, align 8
  %9 = load ptr, ptr %6, align 8
  call void @llvm.memcpy.p0.p0.i64(ptr align 8 %8, ptr align 8 %9, i64 32, i1 false)
  %10 = load ptr, ptr %6, align 8
  %11 = getelementptr inbounds %struct._zend_resource, ptr %10, i32 0, i32 2
  store i32 -1, ptr %11, align 8
  %12 = load ptr, ptr %6, align 8
  %13 = getelementptr inbounds %struct._zend_resource, ptr %12, i32 0, i32 3
  store ptr null, ptr %13, align 8
  %14 = getelementptr inbounds %struct._zend_resource, ptr %8, i32 0, i32 2
  %15 = load i32, ptr %14, align 8
  %16 = sext i32 %15 to i64
  store ptr @list_destructors, ptr %3, align 8
  store i64 %16, ptr %4, align 8
  %17 = load ptr, ptr %3, align 8
  %18 = load i64, ptr %4, align 8
  %19 = call ptr @zend_hash_index_find(ptr noundef %17, i64 noundef %18) #11
  store ptr %19, ptr %5, align 8
  %20 = load ptr, ptr %5, align 8
  %21 = icmp ne ptr %20, null
  br i1 %21, label %22, label %28

22:                                               ; preds = %1
  %23 = load ptr, ptr %5, align 8
  %24 = load ptr, ptr %23, align 8
  %25 = icmp ne ptr %24, null
  call void @llvm.assume(i1 %25)
  %26 = load ptr, ptr %5, align 8
  %27 = load ptr, ptr %26, align 8
  store ptr %27, ptr %2, align 8
  br label %29

28:                                               ; preds = %1
  store ptr null, ptr %2, align 8
  br label %29

29:                                               ; preds = %28, %22
  %30 = load ptr, ptr %2, align 8
  store ptr %30, ptr %7, align 8
  %31 = load ptr, ptr %7, align 8
  %32 = icmp ne ptr %31, null
  br i1 %32, label %33, label %34

33:                                               ; preds = %29
  br label %34

34:                                               ; preds = %33, %29
  %35 = phi i1 [ false, %29 ], [ true, %33 ]
  call void @llvm.assume(i1 %35)
  %36 = load ptr, ptr %7, align 8
  %37 = getelementptr inbounds %struct._zend_rsrc_list_dtors_entry, ptr %36, i32 0, i32 0
  %38 = load ptr, ptr %37, align 8
  %39 = icmp ne ptr %38, null
  br i1 %39, label %40, label %44

40:                                               ; preds = %34
  %41 = load ptr, ptr %7, align 8
  %42 = getelementptr inbounds %struct._zend_rsrc_list_dtors_entry, ptr %41, i32 0, i32 0
  %43 = load ptr, ptr %42, align 8
  call void %43(ptr noundef %8)
  br label %44

44:                                               ; preds = %40, %34
  ret void
}

; Function Attrs: nounwind uwtable
define hidden void @zend_close_rsrc_list(ptr noundef %0) #0 {
  %2 = alloca ptr, align 8
  %3 = alloca ptr, align 8
  %4 = alloca i32, align 4
  %5 = alloca ptr, align 8
  %6 = alloca ptr, align 8
  store ptr %0, ptr %3, align 8
  %7 = load ptr, ptr %3, align 8
  %8 = getelementptr inbounds %struct._zend_array, ptr %7, i32 0, i32 4
  %9 = load i32, ptr %8, align 8
  store i32 %9, ptr %4, align 4
  br label %10

10:                                               ; preds = %47, %1
  %11 = load i32, ptr %4, align 4
  %12 = add i32 %11, -1
  store i32 %12, ptr %4, align 4
  %13 = icmp ugt i32 %11, 0
  br i1 %13, label %14, label %48

14:                                               ; preds = %10
  %15 = load ptr, ptr %3, align 8
  %16 = getelementptr inbounds %struct._zend_array, ptr %15, i32 0, i32 3
  %17 = load ptr, ptr %16, align 8
  %18 = load i32, ptr %4, align 4
  %19 = zext i32 %18 to i64
  %20 = load ptr, ptr %3, align 8
  %21 = getelementptr inbounds %struct._zend_array, ptr %20, i32 0, i32 1
  %22 = load i32, ptr %21, align 8
  %23 = xor i32 %22, -1
  %24 = and i32 %23, 4
  %25 = zext i32 %24 to i64
  %26 = mul i64 %25, 4
  %27 = add i64 16, %26
  %28 = mul i64 %19, %27
  %29 = getelementptr inbounds i8, ptr %17, i64 %28
  store ptr %29, ptr %5, align 8
  %30 = load ptr, ptr %5, align 8
  store ptr %30, ptr %2, align 8
  %31 = load ptr, ptr %2, align 8
  %32 = getelementptr inbounds %struct._zval_struct, ptr %31, i32 0, i32 1
  %33 = load i8, ptr %32, align 8
  %34 = zext i8 %33 to i32
  %35 = icmp ne i32 %34, 0
  br i1 %35, label %36, label %47

36:                                               ; preds = %14
  %37 = load ptr, ptr %5, align 8
  %38 = getelementptr inbounds %struct._zval_struct, ptr %37, i32 0, i32 0
  %39 = load ptr, ptr %38, align 8
  store ptr %39, ptr %6, align 8
  %40 = load ptr, ptr %6, align 8
  %41 = getelementptr inbounds %struct._zend_resource, ptr %40, i32 0, i32 2
  %42 = load i32, ptr %41, align 8
  %43 = icmp sge i32 %42, 0
  br i1 %43, label %44, label %46

44:                                               ; preds = %36
  %45 = load ptr, ptr %6, align 8
  call void @zend_resource_dtor(ptr noundef %45)
  br label %46

46:                                               ; preds = %44, %36
  br label %47

47:                                               ; preds = %46, %14
  br label %10

48:                                               ; preds = %10
  ret void
}