; Function Attrs: nounwind uwtable
define hidden void @zend_close_rsrc_list(ptr nocapture noundef readonly %0) local_unnamed_addr #0 {
  %2 = alloca %struct._zend_resource, align 8
  %3 = getelementptr inbounds i8, ptr %0, i64 24
  %4 = load i32, ptr %3, align 8
  %.not10 = icmp eq i32 %4, 0
  br i1 %.not10, label %._crit_edge, label %.lr.ph

.lr.ph:                                           ; preds = %1
  %5 = getelementptr inbounds i8, ptr %0, i64 16
  %6 = getelementptr inbounds i8, ptr %0, i64 8
  %7 = getelementptr inbounds i8, ptr %2, i64 16
  %8 = zext i32 %4 to i64
  br label %9

9:                                                ; preds = %.lr.ph, %34
  %indvars.iv = phi i64 [ %8, %.lr.ph ], [ %10, %34 ]
  %10 = add nsw i64 %indvars.iv, -1
  %11 = load ptr, ptr %5, align 8
  %12 = load i32, ptr %6, align 8
  %13 = shl i32 %12, 2
  %14 = and i32 %13, 16
  %15 = xor i32 %14, 16
  %narrow = add nuw nsw i32 %15, 16
  %16 = zext nneg i32 %narrow to i64
  %17 = mul nuw nsw i64 %10, %16
  %18 = getelementptr inbounds i8, ptr %11, i64 %17
  %19 = getelementptr inbounds i8, ptr %18, i64 8
  %20 = load i8, ptr %19, align 8
  %.not9 = icmp eq i8 %20, 0
  br i1 %.not9, label %34, label %21

21:                                               ; preds = %9
  %22 = load ptr, ptr %18, align 8
  %23 = getelementptr inbounds i8, ptr %22, i64 16
  %24 = load i32, ptr %23, align 8
  %25 = icmp sgt i32 %24, -1
  br i1 %25, label %26, label %34

26:                                               ; preds = %21
  call void @llvm.lifetime.start.p0(i64 32, ptr nonnull %2)
  call void @llvm.memcpy.p0.p0.i64(ptr noundef nonnull align 8 dereferenceable(32) %2, ptr noundef nonnull align 8 dereferenceable(32) %22, i64 32, i1 false)
  store i32 -1, ptr %23, align 8
  %27 = getelementptr inbounds i8, ptr %22, i64 24
  store ptr null, ptr %27, align 8
  %28 = load i32, ptr %7, align 8
  %29 = sext i32 %28 to i64
  %30 = call ptr @zend_hash_index_find(ptr noundef nonnull @list_destructors, i64 noundef %29) #14
  %.not.i = icmp ne ptr %30, null
  call void @llvm.assume(i1 %.not.i)
  %31 = load ptr, ptr %30, align 8, !nonnull !4, !noundef !4
  %32 = load ptr, ptr %31, align 8
  %.not13.i = icmp eq ptr %32, null
  br i1 %.not13.i, label %zend_resource_dtor.exit, label %33

33:                                               ; preds = %26
  call void %32(ptr noundef nonnull %2) #14
  br label %zend_resource_dtor.exit

zend_resource_dtor.exit:                          ; preds = %26, %33
  call void @llvm.lifetime.end.p0(i64 32, ptr nonnull %2)
  br label %34

34:                                               ; preds = %21, %zend_resource_dtor.exit, %9
  %.not.wide = icmp eq i64 %10, 0
  br i1 %.not.wide, label %._crit_edge, label %9

._crit_edge:                                      ; preds = %34, %1
  ret void
}